target datalayout = "e-m:e-p270:32:32-p271:32:32-p272:64:64-i64:64-i128:128-f80:128-n8:16:32:64-S128"
target triple = "x86_64-pc-linux-gnu"

%struct.stbi__zhuffman = type { [512 x i16], [16 x i16], [17 x i32], [16 x i16], [288 x i8], [288 x i16] }
%struct.stbi__zbuf = type { ptr, ptr, i32, i32, i32, ptr, ptr, ptr, i32, %struct.stbi__zhuffman, %struct.stbi__zhuffman }

; Function Attrs: nounwind uwtable
define i32 @stbi__do_zlib(ptr noundef %0, ptr noundef %1, i32 noundef %2, i32 noundef %3, i32 noundef %4) #0 {
  %6 = alloca ptr, align 8
  %7 = alloca ptr, align 8
  %8 = alloca i32, align 4
  %9 = alloca i32, align 4
  %10 = alloca i32, align 4
  store ptr %0, ptr %6, align 8, !tbaa !3
  store ptr %1, ptr %7, align 8, !tbaa !7
  store i32 %2, ptr %8, align 4, !tbaa !9
  store i32 %3, ptr %9, align 4, !tbaa !9
  store i32 %4, ptr %10, align 4, !tbaa !9
  %11 = load ptr, ptr %7, align 8, !tbaa !7
  %12 = load ptr, ptr %6, align 8, !tbaa !3
  %13 = getelementptr inbounds nuw %struct.stbi__zbuf, ptr %12, i32 0, i32 6
  store ptr %11, ptr %13, align 8, !tbaa !295
  %14 = load ptr, ptr %7, align 8, !tbaa !7
  %15 = load ptr, ptr %6, align 8, !tbaa !3
  %16 = getelementptr inbounds nuw %struct.stbi__zbuf, ptr %15, i32 0, i32 5
  store ptr %14, ptr %16, align 8, !tbaa !293
  %17 = load ptr, ptr %7, align 8, !tbaa !7
  %18 = load i32, ptr %8, align 4, !tbaa !9
  %19 = sext i32 %18 to i64
  %20 = getelementptr inbounds i8, ptr %17, i64 %19
  %21 = load ptr, ptr %6, align 8, !tbaa !3
  %22 = getelementptr inbounds nuw %struct.stbi__zbuf, ptr %21, i32 0, i32 7
  store ptr %20, ptr %22, align 8, !tbaa !296
  %23 = load i32, ptr %9, align 4, !tbaa !9
  %24 = load ptr, ptr %6, align 8, !tbaa !3
  %25 = getelementptr inbounds nuw %struct.stbi__zbuf, ptr %24, i32 0, i32 8
  store i32 %23, ptr %25, align 8, !tbaa !294
  %26 = load ptr, ptr %6, align 8, !tbaa !3
  %27 = load i32, ptr %10, align 4, !tbaa !9
  %28 = call i32 @stbi__parse_zlib(ptr noundef %26, i32 noundef %27)
  ret i32 %28
}

; Function Attrs: nounwind uwtable
define ptr @stbi__malloc(i64 noundef %0) #0 {
  %2 = alloca i64, align 8
  store i64 %0, ptr %2, align 8, !tbaa !26
  %3 = load i64, ptr %2, align 8, !tbaa !26
  %4 = call noalias ptr @malloc(i64 noundef %3) #14
  ret ptr %4
}

; Function Attrs: nounwind uwtable
define ptr @stbi_zlib_decode_noheader_malloc(ptr noundef %0, i32 noundef %1, ptr noundef %2) #0 {
  %4 = alloca ptr, align 8
  %5 = alloca ptr, align 8
  %6 = alloca i32, align 4
  %7 = alloca ptr, align 8
  %8 = alloca %struct.stbi__zbuf, align 8
  %9 = alloca ptr, align 8
  %10 = alloca i32, align 4
  store ptr %0, ptr %5, align 8, !tbaa !7
  store i32 %1, ptr %6, align 4, !tbaa !9
  store ptr %2, ptr %7, align 8, !tbaa !28
  call void @llvm.lifetime.start.p0(i64 4104, ptr %8) #13
  call void @llvm.lifetime.start.p0(i64 8, ptr %9) #13
  %11 = call ptr @stbi__malloc(i64 noundef 16384)
  store ptr %11, ptr %9, align 8, !tbaa !7
  %12 = load ptr, ptr %9, align 8, !tbaa !7
  %13 = icmp eq ptr %12, null
  br i1 %13, label %14, label %15

14:                                               ; preds = %3
  store ptr null, ptr %4, align 8
  store i32 1, ptr %10, align 4
  br label %45

15:                                               ; preds = %3
  %16 = load ptr, ptr %5, align 8, !tbaa !7
  %17 = getelementptr inbounds nuw %struct.stbi__zbuf, ptr %8, i32 0, i32 0
  store ptr %16, ptr %17, align 8, !tbaa !285
  %18 = load ptr, ptr %5, align 8, !tbaa !7
  %19 = load i32, ptr %6, align 4, !tbaa !9
  %20 = sext i32 %19 to i64
  %21 = getelementptr inbounds i8, ptr %18, i64 %20
  %22 = getelementptr inbounds nuw %struct.stbi__zbuf, ptr %8, i32 0, i32 1
  store ptr %21, ptr %22, align 8, !tbaa !288
  %23 = load ptr, ptr %9, align 8, !tbaa !7
  %24 = call i32 @stbi__do_zlib(ptr noundef %8, ptr noundef %23, i32 noundef 16384, i32 noundef 1, i32 noundef 0)
  %25 = icmp ne i32 %24, 0
  br i1 %25, label %26, label %42

26:                                               ; preds = %15
  %27 = load ptr, ptr %7, align 8, !tbaa !28
  %28 = icmp ne ptr %27, null
  br i1 %28, label %29, label %39

29:                                               ; preds = %26
  %30 = getelementptr inbounds nuw %struct.stbi__zbuf, ptr %8, i32 0, i32 5
  %31 = load ptr, ptr %30, align 8, !tbaa !293
  %32 = getelementptr inbounds nuw %struct.stbi__zbuf, ptr %8, i32 0, i32 6
  %33 = load ptr, ptr %32, align 8, !tbaa !295
  %34 = ptrtoint ptr %31 to i64
  %35 = ptrtoint ptr %33 to i64
  %36 = sub i64 %34, %35
  %37 = trunc i64 %36 to i32
  %38 = load ptr, ptr %7, align 8, !tbaa !28
  store i32 %37, ptr %38, align 4, !tbaa !9
  br label %39

39:                                               ; preds = %29, %26
  %40 = getelementptr inbounds nuw %struct.stbi__zbuf, ptr %8, i32 0, i32 6
  %41 = load ptr, ptr %40, align 8, !tbaa !295
  store ptr %41, ptr %4, align 8
  store i32 1, ptr %10, align 4
  br label %45

42:                                               ; preds = %15
  %43 = getelementptr inbounds nuw %struct.stbi__zbuf, ptr %8, i32 0, i32 6
  %44 = load ptr, ptr %43, align 8, !tbaa !295
  call void @free(ptr noundef %44) #13
  store ptr null, ptr %4, align 8
  store i32 1, ptr %10, align 4
  br label %45

45:                                               ; preds = %42, %39, %14
  call void @llvm.lifetime.end.p0(i64 8, ptr %9) #13
  call void @llvm.lifetime.end.p0(i64 4104, ptr %8) #13
  %46 = load ptr, ptr %4, align 8
  ret ptr %46
}