; Function Attrs: nounwind uwtable
define ptr @stbi_zlib_decode_noheader_malloc(ptr noundef %0, i32 noundef %1, ptr noundef writeonly captures(address_is_null) %2) local_unnamed_addr #2 {
  %4 = alloca %struct.stbi__zbuf, align 8
  call void @llvm.lifetime.start.p0(i64 4104, ptr nonnull %4) #37
  %5 = tail call noalias noundef dereferenceable_or_null(16384) ptr @malloc(i64 noundef 16384) #38
  %6 = icmp eq ptr %5, null
  br i1 %6, label %26, label %7

7:                                                ; preds = %3
  store ptr %0, ptr %4, align 8, !tbaa !275
  %8 = sext i32 %1 to i64
  %9 = getelementptr inbounds i8, ptr %0, i64 %8
  %10 = getelementptr inbounds nuw i8, ptr %4, i64 8
  store ptr %9, ptr %10, align 8, !tbaa !278
  %11 = getelementptr inbounds nuw i8, ptr %4, i64 40
  store ptr %5, ptr %11, align 8, !tbaa !285
  %12 = getelementptr inbounds nuw i8, ptr %4, i64 32
  store ptr %5, ptr %12, align 8, !tbaa !283
  %13 = getelementptr inbounds nuw i8, ptr %5, i64 16384
  %14 = getelementptr inbounds nuw i8, ptr %4, i64 48
  store ptr %13, ptr %14, align 8, !tbaa !286
  %15 = getelementptr inbounds nuw i8, ptr %4, i64 56
  store i32 1, ptr %15, align 8, !tbaa !284
  %16 = call range(i32 0, 2) i32 @stbi__parse_zlib(ptr noundef nonnull %4, i32 noundef 0)
  %.not = icmp eq i32 %16, 0
  br i1 %.not, label %24, label %17

17:                                               ; preds = %7
  %.not9 = icmp eq ptr %2, null
  %.pre = load ptr, ptr %11, align 8, !tbaa !285
  br i1 %.not9, label %26, label %18

18:                                               ; preds = %17
  %19 = load ptr, ptr %12, align 8, !tbaa !283
  %20 = ptrtoint ptr %19 to i64
  %21 = ptrtoint ptr %.pre to i64
  %22 = sub i64 %20, %21
  %23 = trunc i64 %22 to i32
  store i32 %23, ptr %2, align 4, !tbaa !23
  br label %26

24:                                               ; preds = %7
  %25 = load ptr, ptr %11, align 8, !tbaa !285
  tail call void @free(ptr noundef %25) #37
  br label %26

26:                                               ; preds = %17, %18, %3, %24
  %.0 = phi ptr [ null, %24 ], [ null, %3 ], [ %.pre, %18 ], [ %.pre, %17 ]
  call void @llvm.lifetime.end.p0(i64 4104, ptr nonnull %4) #37
  ret ptr %.0
}